; Function Attrs: mustprogress uwtable
define noundef nonnull align 8 dereferenceable(80) ptr @_ZN6icu_7512TimeZoneRuleaSERKS0_(ptr noundef nonnull returned align 8 dereferenceable(80) %this, ptr noundef nonnull align 8 dereferenceable(80) %right) local_unnamed_addr #0 align 2 {
entry:
  %cmp.not = icmp eq ptr %this, %right
  br i1 %cmp.not, label %if.end, label %if.then

if.then:                                          ; preds = %entry
  %fName = getelementptr inbounds i8, ptr %right, i64 8
  %fName2 = getelementptr inbounds i8, ptr %this, i64 8
  %call = tail call noundef nonnull align 8 dereferenceable(64) ptr @_ZN6icu_7513UnicodeStringaSERKS0_(ptr noundef nonnull align 8 dereferenceable(64) %fName2, ptr noundef nonnull align 8 dereferenceable(64) %fName)
  %fRawOffset = getelementptr inbounds i8, ptr %right, i64 72
  %0 = load i32, ptr %fRawOffset, align 8
  %fRawOffset3 = getelementptr inbounds i8, ptr %this, i64 72
  store i32 %0, ptr %fRawOffset3, align 8
  %fDSTSavings = getelementptr inbounds i8, ptr %right, i64 76
  %1 = load i32, ptr %fDSTSavings, align 4
  %fDSTSavings4 = getelementptr inbounds i8, ptr %this, i64 76
  store i32 %1, ptr %fDSTSavings4, align 4
  br label %if.end

if.end:                                           ; preds = %if.then, %entry
  ret ptr %this
}